target datalayout = "e-m:e-p270:32:32-p271:32:32-p272:64:64-i64:64-i128:128-f80:128-n8:16:32:64-S128"
target triple = "x86_64-pc-linux-gnu"

%struct.AVFilterContext = type { ptr, ptr, ptr, ptr, ptr, i32, ptr, ptr, i32, ptr, ptr, i32, i32, ptr, ptr, ptr, ptr, i32, ptr, i32, i32 }
%struct.MorphoContext = type { ptr, %struct.FFFrameSync, [4 x %struct.chord_set], [4 x %struct.IPlane], [4 x %struct.IPlane], [4 x %struct.IPlane], [4 x %struct.IPlane], [64 x [2 x [4 x %struct.LUT]]], i32, i32, i32, [4 x i32], [4 x i32], [4 x i32], [4 x i32], i32, i32, i32, [4 x i32], ptr, ptr, ptr }
%struct.FFFrameSync = type { ptr, ptr, i32, %struct.AVRational, i64, ptr, ptr, i32, i32, i8, i8, ptr, i32, i32, i32, i32 }
%struct.AVRational = type { i32, i32 }
%struct.chord_set = type { ptr, i32, i32, ptr, i32, i32, i32, i32, i32, i32 }
%struct.IPlane = type { ptr, i32, i32, i32, i32, i32, ptr, ptr, ptr, ptr, ptr, ptr }
%struct.LUT = type { ptr, ptr, i32, i32, i32, i32, i32, i32 }
%struct.AVFilterLink = type { ptr, ptr, ptr, ptr, i32, i32, i32, i32, %struct.AVRational, i32, i32, i32, %struct.AVChannelLayout, %struct.AVRational, ptr, i32, %struct.AVFilterFormatsConfig, %struct.AVFilterFormatsConfig }
%struct.AVChannelLayout = type { i32, i32, %union.anon.1, ptr }
%union.anon.1 = type { i64 }
%struct.AVFilterFormatsConfig = type { ptr, ptr, ptr, ptr, ptr }
%struct.FilterLink = type { %struct.AVFilterLink, ptr, i64, i64, i32, i32, i64, i64, i64, i64, %struct.AVRational, ptr }

; Function Attrs: inlinehint nounwind uwtable
define internal ptr @ff_filter_link(ptr noundef %0) #6 {
  %2 = alloca ptr, align 8
  store ptr %0, ptr %2, align 8, !tbaa !28
  %3 = load ptr, ptr %2, align 8, !tbaa !28
  ret ptr %3
}

; Function Attrs: nounwind uwtable
define internal i32 @config_output(ptr noundef %0) #0 {
  %2 = alloca i32, align 4
  %3 = alloca ptr, align 8
  %4 = alloca ptr, align 8
  %5 = alloca ptr, align 8
  %6 = alloca ptr, align 8
  %7 = alloca ptr, align 8
  %8 = alloca ptr, align 8
  %9 = alloca i32, align 4
  %10 = alloca i32, align 4
  store ptr %0, ptr %3, align 8, !tbaa !28
  call void @llvm.lifetime.start.p0(i64 8, ptr %4) #12
  %11 = load ptr, ptr %3, align 8, !tbaa !28
  %12 = getelementptr inbounds nuw %struct.AVFilterLink, ptr %11, i32 0, i32 0
  %13 = load ptr, ptr %12, align 8, !tbaa !59
  store ptr %13, ptr %4, align 8, !tbaa !4
  call void @llvm.lifetime.start.p0(i64 8, ptr %5) #12
  %14 = load ptr, ptr %4, align 8, !tbaa !4
  %15 = getelementptr inbounds nuw %struct.AVFilterContext, ptr %14, i32 0, i32 9
  %16 = load ptr, ptr %15, align 8, !tbaa !9
  store ptr %16, ptr %5, align 8, !tbaa !22
  call void @llvm.lifetime.start.p0(i64 8, ptr %6) #12
  %17 = load ptr, ptr %4, align 8, !tbaa !4
  %18 = getelementptr inbounds nuw %struct.AVFilterContext, ptr %17, i32 0, i32 4
  %19 = load ptr, ptr %18, align 8, !tbaa !58
  %20 = getelementptr inbounds ptr, ptr %19, i64 0
  %21 = load ptr, ptr %20, align 8, !tbaa !28
  store ptr %21, ptr %6, align 8, !tbaa !28
  call void @llvm.lifetime.start.p0(i64 8, ptr %7) #12
  %22 = load ptr, ptr %6, align 8, !tbaa !28
  %23 = call ptr @ff_filter_link(ptr noundef %22)
  store ptr %23, ptr %7, align 8, !tbaa !60
  call void @llvm.lifetime.start.p0(i64 8, ptr %8) #12
  %24 = load ptr, ptr %3, align 8, !tbaa !28
  %25 = call ptr @ff_filter_link(ptr noundef %24)
  store ptr %25, ptr %8, align 8, !tbaa !60
  call void @llvm.lifetime.start.p0(i64 4, ptr %9) #12
  %26 = load ptr, ptr %5, align 8, !tbaa !22
  %27 = getelementptr inbounds nuw %struct.MorphoContext, ptr %26, i32 0, i32 1
  %28 = getelementptr inbounds nuw %struct.FFFrameSync, ptr %27, i32 0, i32 5
  store ptr @do_morpho, ptr %28, align 8, !tbaa !62
  %29 = load ptr, ptr %5, align 8, !tbaa !22
  %30 = getelementptr inbounds nuw %struct.MorphoContext, ptr %29, i32 0, i32 1
  %31 = load ptr, ptr %4, align 8, !tbaa !4
  %32 = call i32 @ff_framesync_init_dualinput(ptr noundef %30, ptr noundef %31)
  store i32 %32, ptr %9, align 4, !tbaa !24
  %33 = load i32, ptr %9, align 4, !tbaa !24
  %34 = icmp slt i32 %33, 0
  br i1 %34, label %35, label %37

35:                                               ; preds = %1
  %36 = load i32, ptr %9, align 4, !tbaa !24
  store i32 %36, ptr %2, align 4
  store i32 1, ptr %10, align 4
  br label %121

37:                                               ; preds = %1
  %38 = load ptr, ptr %6, align 8, !tbaa !28
  %39 = getelementptr inbounds nuw %struct.AVFilterLink, ptr %38, i32 0, i32 6
  %40 = load i32, ptr %39, align 8, !tbaa !55
  %41 = load ptr, ptr %3, align 8, !tbaa !28
  %42 = getelementptr inbounds nuw %struct.AVFilterLink, ptr %41, i32 0, i32 6
  store i32 %40, ptr %42, align 8, !tbaa !55
  %43 = load ptr, ptr %6, align 8, !tbaa !28
  %44 = getelementptr inbounds nuw %struct.AVFilterLink, ptr %43, i32 0, i32 7
  %45 = load i32, ptr %44, align 4, !tbaa !57
  %46 = load ptr, ptr %3, align 8, !tbaa !28
  %47 = getelementptr inbounds nuw %struct.AVFilterLink, ptr %46, i32 0, i32 7
  store i32 %45, ptr %47, align 4, !tbaa !57
  %48 = load ptr, ptr %3, align 8, !tbaa !28
  %49 = getelementptr inbounds nuw %struct.AVFilterLink, ptr %48, i32 0, i32 13
  %50 = load ptr, ptr %6, align 8, !tbaa !28
  %51 = getelementptr inbounds nuw %struct.AVFilterLink, ptr %50, i32 0, i32 13
  call void @llvm.memcpy.p0.p0.i64(ptr align 8 %49, ptr align 8 %51, i64 8, i1 false), !tbaa.struct !63
  %52 = load ptr, ptr %3, align 8, !tbaa !28
  %53 = getelementptr inbounds nuw %struct.AVFilterLink, ptr %52, i32 0, i32 8
  %54 = load ptr, ptr %6, align 8, !tbaa !28
  %55 = getelementptr inbounds nuw %struct.AVFilterLink, ptr %54, i32 0, i32 8
  call void @llvm.memcpy.p0.p0.i64(ptr align 8 %53, ptr align 8 %55, i64 8, i1 false), !tbaa.struct !63
  %56 = load ptr, ptr %8, align 8, !tbaa !60
  %57 = getelementptr inbounds nuw %struct.FilterLink, ptr %56, i32 0, i32 10
  %58 = load ptr, ptr %7, align 8, !tbaa !60
  %59 = getelementptr inbounds nuw %struct.FilterLink, ptr %58, i32 0, i32 10
  call void @llvm.memcpy.p0.p0.i64(ptr align 8 %57, ptr align 8 %59, i64 8, i1 false), !tbaa.struct !63
  %60 = load ptr, ptr %5, align 8, !tbaa !22
  %61 = getelementptr inbounds nuw %struct.MorphoContext, ptr %60, i32 0, i32 1
  %62 = call i32 @ff_framesync_configure(ptr noundef %61)
  store i32 %62, ptr %9, align 4, !tbaa !24
  %63 = icmp slt i32 %62, 0
  br i1 %63, label %64, label %66

64:                                               ; preds = %37
  %65 = load i32, ptr %9, align 4, !tbaa !24
  store i32 %65, ptr %2, align 4
  store i32 1, ptr %10, align 4
  br label %121

66:                                               ; preds = %37
  %67 = load ptr, ptr %3, align 8, !tbaa !28
  %68 = getelementptr inbounds nuw %struct.AVFilterLink, ptr %67, i32 0, i32 13
  %69 = load ptr, ptr %5, align 8, !tbaa !22
  %70 = getelementptr inbounds nuw %struct.MorphoContext, ptr %69, i32 0, i32 1
  %71 = getelementptr inbounds nuw %struct.FFFrameSync, ptr %70, i32 0, i32 3
  call void @llvm.memcpy.p0.p0.i64(ptr align 8 %68, ptr align 4 %71, i64 8, i1 false), !tbaa.struct !63
  %72 = load ptr, ptr %3, align 8, !tbaa !28
  %73 = load ptr, ptr %3, align 8, !tbaa !28
  %74 = getelementptr inbounds nuw %struct.AVFilterLink, ptr %73, i32 0, i32 6
  %75 = load i32, ptr %74, align 8, !tbaa !55
  %76 = load ptr, ptr %3, align 8, !tbaa !28
  %77 = getelementptr inbounds nuw %struct.AVFilterLink, ptr %76, i32 0, i32 7
  %78 = load i32, ptr %77, align 4, !tbaa !57
  %79 = call ptr @ff_get_video_buffer(ptr noundef %72, i32 noundef %75, i32 noundef %78)
  %80 = load ptr, ptr %5, align 8, !tbaa !22
  %81 = getelementptr inbounds nuw %struct.MorphoContext, ptr %80, i32 0, i32 19
  store ptr %79, ptr %81, align 8, !tbaa !64
  %82 = load ptr, ptr %5, align 8, !tbaa !22
  %83 = getelementptr inbounds nuw %struct.MorphoContext, ptr %82, i32 0, i32 19
  %84 = load ptr, ptr %83, align 8, !tbaa !64
  %85 = icmp ne ptr %84, null
  br i1 %85, label %87, label %86

86:                                               ; preds = %66
  store i32 -12, ptr %2, align 4
  store i32 1, ptr %10, align 4
  br label %121

87:                                               ; preds = %66
  %88 = load ptr, ptr %3, align 8, !tbaa !28
  %89 = getelementptr inbounds nuw %struct.AVFilterLink, ptr %88, i32 0, i32 6
  %90 = load i32, ptr %89, align 8, !tbaa !55
  %91 = load ptr, ptr %3, align 8, !tbaa !28
  %92 = getelementptr inbounds nuw %struct.AVFilterLink, ptr %91, i32 0, i32 7
  %93 = load i32, ptr %92, align 4, !tbaa !57
  %94 = mul nsw i32 %90, %93
  %95 = sext i32 %94 to i64
  %96 = call noalias ptr @av_calloc(i64 noundef %95, i64 noundef 8)
  %97 = load ptr, ptr %5, align 8, !tbaa !22
  %98 = getelementptr inbounds nuw %struct.MorphoContext, ptr %97, i32 0, i32 20
  store ptr %96, ptr %98, align 8, !tbaa !65
  %99 = load ptr, ptr %3, align 8, !tbaa !28
  %100 = getelementptr inbounds nuw %struct.AVFilterLink, ptr %99, i32 0, i32 6
  %101 = load i32, ptr %100, align 8, !tbaa !55
  %102 = load ptr, ptr %3, align 8, !tbaa !28
  %103 = getelementptr inbounds nuw %struct.AVFilterLink, ptr %102, i32 0, i32 7
  %104 = load i32, ptr %103, align 4, !tbaa !57
  %105 = mul nsw i32 %101, %104
  %106 = sext i32 %105 to i64
  %107 = call noalias ptr @av_calloc(i64 noundef %106, i64 noundef 8)
  %108 = load ptr, ptr %5, align 8, !tbaa !22
  %109 = getelementptr inbounds nuw %struct.MorphoContext, ptr %108, i32 0, i32 21
  store ptr %107, ptr %109, align 8, !tbaa !66
  %110 = load ptr, ptr %5, align 8, !tbaa !22
  %111 = getelementptr inbounds nuw %struct.MorphoContext, ptr %110, i32 0, i32 20
  %112 = load ptr, ptr %111, align 8, !tbaa !65
  %113 = icmp ne ptr %112, null
  br i1 %113, label %114, label %119

114:                                              ; preds = %87
  %115 = load ptr, ptr %5, align 8, !tbaa !22
  %116 = getelementptr inbounds nuw %struct.MorphoContext, ptr %115, i32 0, i32 21
  %117 = load ptr, ptr %116, align 8, !tbaa !66
  %118 = icmp ne ptr %117, null
  br i1 %118, label %120, label %119

119:                                              ; preds = %114, %87
  store i32 -12, ptr %2, align 4
  store i32 1, ptr %10, align 4
  br label %121

120:                                              ; preds = %114
  store i32 0, ptr %2, align 4
  store i32 1, ptr %10, align 4
  br label %121

121:                                              ; preds = %120, %119, %86, %64, %35
  call void @llvm.lifetime.end.p0(i64 4, ptr %9) #12
  call void @llvm.lifetime.end.p0(i64 8, ptr %8) #12
  call void @llvm.lifetime.end.p0(i64 8, ptr %7) #12
  call void @llvm.lifetime.end.p0(i64 8, ptr %6) #12
  call void @llvm.lifetime.end.p0(i64 8, ptr %5) #12
  call void @llvm.lifetime.end.p0(i64 8, ptr %4) #12
  %122 = load i32, ptr %2, align 4
  ret i32 %122
}