; Function Attrs: nounwind uwtable
define internal range(i32 -2147483648, 1) i32 @config_output(ptr noundef %0) #0 {
  %2 = load ptr, ptr %0, align 8, !tbaa !60
  %3 = getelementptr inbounds nuw i8, ptr %2, i64 72
  %4 = load ptr, ptr %3, align 8, !tbaa !4
  %5 = getelementptr inbounds nuw i8, ptr %2, i64 32
  %6 = load ptr, ptr %5, align 8, !tbaa !57
  %7 = load ptr, ptr %6, align 8, !tbaa !58
  %8 = getelementptr inbounds nuw i8, ptr %4, i64 8
  %9 = getelementptr inbounds nuw i8, ptr %4, i64 48
  store ptr @do_morpho, ptr %9, align 8, !tbaa !61
  %10 = tail call i32 @ff_framesync_init_dualinput(ptr noundef nonnull %8, ptr noundef %2) #14
  %11 = icmp slt i32 %10, 0
  br i1 %11, label %51, label %12

12:                                               ; preds = %1
  %13 = getelementptr inbounds nuw i8, ptr %7, i64 40
  %14 = load i32, ptr %13, align 8, !tbaa !52
  %15 = getelementptr inbounds nuw i8, ptr %0, i64 40
  store i32 %14, ptr %15, align 8, !tbaa !52
  %16 = getelementptr inbounds nuw i8, ptr %7, i64 44
  %17 = load i32, ptr %16, align 4, !tbaa !55
  %18 = getelementptr inbounds nuw i8, ptr %0, i64 44
  store i32 %17, ptr %18, align 4, !tbaa !55
  %19 = getelementptr inbounds nuw i8, ptr %0, i64 96
  %20 = getelementptr inbounds nuw i8, ptr %7, i64 96
  %21 = load i64, ptr %20, align 8
  store i64 %21, ptr %19, align 8
  %22 = getelementptr inbounds nuw i8, ptr %0, i64 48
  %23 = getelementptr inbounds nuw i8, ptr %7, i64 48
  %24 = load i64, ptr %23, align 8
  store i64 %24, ptr %22, align 8
  %25 = getelementptr inbounds nuw i8, ptr %0, i64 264
  %26 = getelementptr inbounds nuw i8, ptr %7, i64 264
  %27 = load i64, ptr %26, align 8
  store i64 %27, ptr %25, align 8
  %28 = tail call i32 @ff_framesync_configure(ptr noundef nonnull %8) #14
  %29 = icmp slt i32 %28, 0
  br i1 %29, label %51, label %30

30:                                               ; preds = %12
  %31 = getelementptr inbounds nuw i8, ptr %4, i64 28
  %32 = load i64, ptr %31, align 4
  store i64 %32, ptr %19, align 8
  %33 = load i32, ptr %15, align 8, !tbaa !52
  %34 = load i32, ptr %18, align 4, !tbaa !55
  %35 = tail call ptr @ff_get_video_buffer(ptr noundef nonnull %0, i32 noundef %33, i32 noundef %34) #14
  %36 = getelementptr inbounds nuw i8, ptr %4, i64 22160
  store ptr %35, ptr %36, align 8, !tbaa !62
  %.not = icmp eq ptr %35, null
  br i1 %.not, label %51, label %37

37:                                               ; preds = %30
  %38 = load i32, ptr %15, align 8, !tbaa !52
  %39 = load i32, ptr %18, align 4, !tbaa !55
  %40 = mul nsw i32 %39, %38
  %41 = sext i32 %40 to i64
  %42 = tail call noalias ptr @av_calloc(i64 noundef %41, i64 noundef 8) #14
  %43 = getelementptr inbounds nuw i8, ptr %4, i64 22168
  store ptr %42, ptr %43, align 8, !tbaa !63
  %44 = load i32, ptr %15, align 8, !tbaa !52
  %45 = load i32, ptr %18, align 4, !tbaa !55
  %46 = mul nsw i32 %45, %44
  %47 = sext i32 %46 to i64
  %48 = tail call noalias ptr @av_calloc(i64 noundef %47, i64 noundef 8) #14
  %49 = getelementptr inbounds nuw i8, ptr %4, i64 22176
  store ptr %48, ptr %49, align 8, !tbaa !64
  %50 = load ptr, ptr %43, align 8, !tbaa !63
  %.not39 = icmp eq ptr %50, null
  %.not40 = icmp eq ptr %48, null
  %or.cond = select i1 %.not39, i1 true, i1 %.not40
  %spec.select = select i1 %or.cond, i32 -12, i32 0
  br label %51

51:                                               ; preds = %37, %30, %12, %1
  %.0 = phi i32 [ %10, %1 ], [ %28, %12 ], [ -12, %30 ], [ %spec.select, %37 ]
  ret i32 %.0
}